target datalayout = "e-m:e-p270:32:32-p271:32:32-p272:64:64-i64:64-i128:128-f80:128-n8:16:32:64-S128"
target triple = "x86_64-pc-linux-gnu"

%struct.traceobj_arg = type { i32, i32, i64, i64, ptr, ptr, ptr }
%struct.RBasic = type { i64, i64 }
%struct.RTypedData = type { %struct.RBasic, ptr, i64, ptr }

@tmp_trace_arg = internal global ptr null, align 8
@rb_cObject = external global i64, align 8
@traceobj_arg = internal global i64 0, align 8
@tmp_keep_remains = internal global i32 0, align 4

; Function Attrs: inlinehint nounwind sspstrong uwtable
define internal zeroext i1 @RTYPEDDATA_EMBEDDED_P(i64 noundef %0) #3 {
  %2 = alloca i64, align 8
  store i64 %0, ptr %2, align 8, !tbaa !6
  %3 = load i64, ptr %2, align 8, !tbaa !6
  %4 = inttoptr i64 %3 to ptr
  %5 = getelementptr inbounds nuw %struct.RTypedData, ptr %4, i32 0, i32 2
  %6 = load i64, ptr %5, align 8, !tbaa !45
  %7 = and i64 %6, 2
  %8 = icmp ne i64 %7, 0
  ret i1 %8
}

; Function Attrs: inlinehint nounwind sspstrong uwtable
define internal ptr @RTYPEDDATA_GET_DATA(i64 noundef %0) #3 {
  %2 = alloca i64, align 8
  %3 = alloca i64, align 8
  store i64 %0, ptr %2, align 8, !tbaa !6
  call void @llvm.lifetime.start.p0(i64 8, ptr %3) #17
  store i64 32, ptr %3, align 8, !tbaa !6
  %4 = load i64, ptr %2, align 8, !tbaa !6
  %5 = call zeroext i1 @RTYPEDDATA_EMBEDDED_P(i64 noundef %4)
  br i1 %5, label %6, label %10

6:                                                ; preds = %1
  %7 = load i64, ptr %2, align 8, !tbaa !6
  %8 = inttoptr i64 %7 to ptr
  %9 = getelementptr inbounds nuw i8, ptr %8, i64 32
  br label %15

10:                                               ; preds = %1
  %11 = load i64, ptr %2, align 8, !tbaa !6
  %12 = inttoptr i64 %11 to ptr
  %13 = getelementptr inbounds nuw %struct.RTypedData, ptr %12, i32 0, i32 3
  %14 = load ptr, ptr %13, align 8, !tbaa !41
  br label %15

15:                                               ; preds = %10, %6
  %16 = phi ptr [ %9, %6 ], [ %14, %10 ]
  call void @llvm.lifetime.end.p0(i64 8, ptr %3) #17
  ret ptr %16
}

; Function Attrs: nounwind sspstrong uwtable
define internal ptr @get_traceobj_arg() #0 {
  %1 = alloca i64, align 8
  %2 = alloca i64, align 8
  %3 = alloca i64, align 8
  %4 = load ptr, ptr @tmp_trace_arg, align 8, !tbaa !10
  %5 = icmp eq ptr %4, null
  br i1 %5, label %6, label %30

6:                                                ; preds = %0
  call void @llvm.lifetime.start.p0(i64 8, ptr %1) #17
  call void @llvm.lifetime.start.p0(i64 8, ptr %2) #17
  %7 = load i64, ptr @rb_cObject, align 8, !tbaa !6
  %8 = call i64 @rb_data_typed_object_zalloc(i64 noundef %7, i64 noundef 48, ptr noundef @allocation_info_tracer_type)
  store i64 %8, ptr %2, align 8, !tbaa !6
  %9 = load i64, ptr %2, align 8, !tbaa !6
  %10 = call ptr @RTYPEDDATA_GET_DATA(i64 noundef %9)
  store ptr %10, ptr @tmp_trace_arg, align 8, !tbaa !10
  %11 = load i64, ptr %2, align 8, !tbaa !6
  store i64 %11, ptr %3, align 8, !tbaa !6
  call void @llvm.lifetime.end.p0(i64 8, ptr %2) #17
  %12 = load i64, ptr %3, align 8, !tbaa !6
  store i64 %12, ptr %1, align 8, !tbaa !6
  %13 = load i64, ptr %1, align 8, !tbaa !6
  store i64 %13, ptr @traceobj_arg, align 8, !tbaa !6
  %14 = load i64, ptr @traceobj_arg, align 8, !tbaa !6
  call void @rb_gc_register_mark_object(i64 noundef %14)
  %15 = load ptr, ptr @tmp_trace_arg, align 8, !tbaa !10
  %16 = getelementptr inbounds nuw %struct.traceobj_arg, ptr %15, i32 0, i32 0
  store i32 0, ptr %16, align 8, !tbaa !17
  %17 = load i32, ptr @tmp_keep_remains, align 4, !tbaa !21
  %18 = load ptr, ptr @tmp_trace_arg, align 8, !tbaa !10
  %19 = getelementptr inbounds nuw %struct.traceobj_arg, ptr %18, i32 0, i32 1
  store i32 %17, ptr %19, align 4, !tbaa !31
  %20 = load ptr, ptr @tmp_trace_arg, align 8, !tbaa !10
  %21 = getelementptr inbounds nuw %struct.traceobj_arg, ptr %20, i32 0, i32 2
  store i64 0, ptr %21, align 8, !tbaa !18
  %22 = load ptr, ptr @tmp_trace_arg, align 8, !tbaa !10
  %23 = getelementptr inbounds nuw %struct.traceobj_arg, ptr %22, i32 0, i32 3
  store i64 0, ptr %23, align 8, !tbaa !19
  %24 = call ptr @rb_st_init_numtable()
  %25 = load ptr, ptr @tmp_trace_arg, align 8, !tbaa !10
  %26 = getelementptr inbounds nuw %struct.traceobj_arg, ptr %25, i32 0, i32 4
  store ptr %24, ptr %26, align 8, !tbaa !13
  %27 = call ptr @rb_st_init_strtable()
  %28 = load ptr, ptr @tmp_trace_arg, align 8, !tbaa !10
  %29 = getelementptr inbounds nuw %struct.traceobj_arg, ptr %28, i32 0, i32 5
  store ptr %27, ptr %29, align 8, !tbaa !20
  call void @llvm.lifetime.end.p0(i64 8, ptr %1) #17
  br label %30

30:                                               ; preds = %6, %0
  %31 = load ptr, ptr @tmp_trace_arg, align 8, !tbaa !10
  ret ptr %31
}

; Function Attrs: nounwind sspstrong uwtable
define internal i64 @trace_object_allocations_clear(i64 noundef %0) #0 {
  %2 = alloca i64, align 8
  %3 = alloca ptr, align 8
  store i64 %0, ptr %2, align 8, !tbaa !6
  call void @llvm.lifetime.start.p0(i64 8, ptr %3) #17
  %4 = call ptr @get_traceobj_arg()
  store ptr %4, ptr %3, align 8, !tbaa !10
  %5 = load ptr, ptr %3, align 8, !tbaa !10
  %6 = getelementptr inbounds nuw %struct.traceobj_arg, ptr %5, i32 0, i32 4
  %7 = load ptr, ptr %6, align 8, !tbaa !13
  %8 = call i32 @rb_st_foreach(ptr noundef %7, ptr noundef @free_values_i, i64 noundef 0)
  %9 = load ptr, ptr %3, align 8, !tbaa !10
  %10 = getelementptr inbounds nuw %struct.traceobj_arg, ptr %9, i32 0, i32 4
  %11 = load ptr, ptr %10, align 8, !tbaa !13
  call void @rb_st_clear(ptr noundef %11)
  %12 = load ptr, ptr %3, align 8, !tbaa !10
  %13 = getelementptr inbounds nuw %struct.traceobj_arg, ptr %12, i32 0, i32 5
  %14 = load ptr, ptr %13, align 8, !tbaa !20
  %15 = call i32 @rb_st_foreach(ptr noundef %14, ptr noundef @free_keys_i, i64 noundef 0)
  %16 = load ptr, ptr %3, align 8, !tbaa !10
  %17 = getelementptr inbounds nuw %struct.traceobj_arg, ptr %16, i32 0, i32 5
  %18 = load ptr, ptr %17, align 8, !tbaa !20
  call void @rb_st_clear(ptr noundef %18)
  call void @llvm.lifetime.end.p0(i64 8, ptr %3) #17
  ret i64 4
}