; Function Attrs: nounwind sspstrong uwtable
define internal noundef i64 @trace_object_allocations_clear(i64 %0) #0 {
  %2 = load ptr, ptr @tmp_trace_arg, align 8, !tbaa !6
  %3 = icmp eq ptr %2, null
  br i1 %3, label %4, label %get_traceobj_arg.exit

4:                                                ; preds = %1
  %5 = load i64, ptr @rb_cObject, align 8, !tbaa !16
  %6 = tail call i64 @rb_data_typed_object_zalloc(i64 noundef %5, i64 noundef 48, ptr noundef nonnull @allocation_info_tracer_type) #10
  %7 = inttoptr i64 %6 to ptr
  %8 = getelementptr inbounds nuw i8, ptr %7, i64 24
  %9 = load i64, ptr %8, align 8, !tbaa !17
  %10 = and i64 %9, 2
  %.not.i.i = icmp eq i64 %10, 0
  %11 = getelementptr inbounds nuw i8, ptr %7, i64 32
  br i1 %.not.i.i, label %12, label %RTYPEDDATA_GET_DATA.exit.i

12:                                               ; preds = %4
  %13 = load ptr, ptr %11, align 8, !tbaa !21
  br label %RTYPEDDATA_GET_DATA.exit.i

RTYPEDDATA_GET_DATA.exit.i:                       ; preds = %12, %4
  %14 = phi ptr [ %13, %12 ], [ %11, %4 ]
  store ptr %14, ptr @tmp_trace_arg, align 8, !tbaa !6
  tail call void @rb_gc_register_mark_object(i64 noundef %6) #10
  %15 = load ptr, ptr @tmp_trace_arg, align 8, !tbaa !6
  store i32 0, ptr %15, align 8, !tbaa !22
  %.b.i = load i1, ptr @tmp_keep_remains, align 4
  %16 = zext i1 %.b.i to i32
  %17 = getelementptr inbounds nuw i8, ptr %15, i64 4
  store i32 %16, ptr %17, align 4, !tbaa !23
  %18 = getelementptr inbounds nuw i8, ptr %15, i64 8
  tail call void @llvm.memset.p0.i64(ptr noundef nonnull align 8 dereferenceable(16) %18, i8 0, i64 16, i1 false)
  %19 = tail call ptr @rb_st_init_numtable() #10
  %20 = load ptr, ptr @tmp_trace_arg, align 8, !tbaa !6
  %21 = getelementptr inbounds nuw i8, ptr %20, i64 24
  store ptr %19, ptr %21, align 8, !tbaa !11
  %22 = tail call ptr @rb_st_init_strtable() #10
  %23 = load ptr, ptr @tmp_trace_arg, align 8, !tbaa !6
  %24 = getelementptr inbounds nuw i8, ptr %23, i64 32
  store ptr %22, ptr %24, align 8, !tbaa !24
  br label %get_traceobj_arg.exit

get_traceobj_arg.exit:                            ; preds = %1, %RTYPEDDATA_GET_DATA.exit.i
  %25 = phi ptr [ %23, %RTYPEDDATA_GET_DATA.exit.i ], [ %2, %1 ]
  %26 = getelementptr inbounds nuw i8, ptr %25, i64 24
  %27 = load ptr, ptr %26, align 8, !tbaa !11
  %28 = tail call i32 @rb_st_foreach(ptr noundef %27, ptr noundef nonnull @free_values_i, i64 noundef 0) #10
  %29 = load ptr, ptr %26, align 8, !tbaa !11
  tail call void @rb_st_clear(ptr noundef %29) #10
  %30 = getelementptr inbounds nuw i8, ptr %25, i64 32
  %31 = load ptr, ptr %30, align 8, !tbaa !24
  %32 = tail call i32 @rb_st_foreach(ptr noundef %31, ptr noundef nonnull @free_keys_i, i64 noundef 0) #10
  %33 = load ptr, ptr %30, align 8, !tbaa !24
  tail call void @rb_st_clear(ptr noundef %33) #10
  ret i64 4
}